target datalayout = "e-m:e-p270:32:32-p271:32:32-p272:64:64-i64:64-i128:128-f80:128-n8:16:32:64-S128"
target triple = "x86_64-pc-linux-gnu"

%struct.JfrSamplerParams = type { i64, i64, i64, i8 }
%class.JfrEventThrottler = type <{ %class.JfrAdaptiveSampler.base, [4 x i8], %struct.JfrSamplerParams, i64, i64, double, i32, i8, i8, [2 x i8] }>
%class.JfrAdaptiveSampler.base = type <{ ptr, %class.JfrPRNG, ptr, ptr, ptr, double, double, i64, i64, i32 }>
%class.JfrPRNG = type { i64 }

@_ZTV17JfrEventThrottler = hidden unnamed_addr constant { [6 x ptr] } { [6 x ptr] [ptr null, ptr null, ptr @_ZN17JfrEventThrottlerD2Ev, ptr @_ZN17JfrEventThrottlerD0Ev, ptr @_ZN18JfrAdaptiveSampler10initializeEv, ptr @_ZN17JfrEventThrottler18next_window_paramsEPK16JfrSamplerWindow] }, align 8

; Function Attrs: mustprogress nounwind uwtable
define hidden void @_ZN17JfrEventThrottlerC2E10JfrEventId(ptr noundef nonnull align 8 dereferenceable(142) %0, i32 noundef %1) unnamed_addr #1 align 2 {
  %3 = alloca ptr, align 8
  %4 = alloca i32, align 4
  store ptr %0, ptr %3, align 8
  store i32 %1, ptr %4, align 4
  %5 = load ptr, ptr %3, align 8
  call void @_ZN18JfrAdaptiveSamplerC2Ev(ptr noundef nonnull align 8 dereferenceable(76) %5)
  store ptr getelementptr inbounds inrange(-16, 32) ({ [6 x ptr] }, ptr @_ZTV17JfrEventThrottler, i32 0, i32 0, i32 2), ptr %5, align 8
  %6 = getelementptr inbounds %class.JfrEventThrottler, ptr %5, i32 0, i32 2
  call void @llvm.memset.p0.i64(ptr align 8 %6, i8 0, i64 32, i1 false)
  %7 = getelementptr inbounds %class.JfrEventThrottler, ptr %5, i32 0, i32 3
  store i64 0, ptr %7, align 8
  %8 = getelementptr inbounds %class.JfrEventThrottler, ptr %5, i32 0, i32 4
  store i64 0, ptr %8, align 8
  %9 = getelementptr inbounds %class.JfrEventThrottler, ptr %5, i32 0, i32 5
  store double 0.000000e+00, ptr %9, align 8
  %10 = getelementptr inbounds %class.JfrEventThrottler, ptr %5, i32 0, i32 6
  %11 = load i32, ptr %4, align 4
  store i32 %11, ptr %10, align 8
  %12 = getelementptr inbounds %class.JfrEventThrottler, ptr %5, i32 0, i32 7
  store i8 0, ptr %12, align 4
  %13 = getelementptr inbounds %class.JfrEventThrottler, ptr %5, i32 0, i32 8
  store i8 0, ptr %13, align 1
  ret void
}