; Function Attrs: mustprogress nounwind uwtable
define hidden void @_ZN17JfrEventThrottlerC2E10JfrEventId(ptr noundef nonnull align 8 dereferenceable(142) %0, i32 noundef %1) unnamed_addr #0 align 2 {
  tail call void @_ZN18JfrAdaptiveSamplerC2Ev(ptr noundef nonnull align 8 dereferenceable(76) %0) #9
  store ptr getelementptr inbounds inrange(-16, 32) (i8, ptr @_ZTV17JfrEventThrottler, i64 16), ptr %0, align 8
  %3 = getelementptr inbounds i8, ptr %0, i64 80
  %4 = getelementptr inbounds i8, ptr %0, i64 136
  tail call void @llvm.memset.p0.i64(ptr noundef nonnull align 8 dereferenceable(56) %3, i8 0, i64 56, i1 false)
  store i32 %1, ptr %4, align 8
  %5 = getelementptr inbounds i8, ptr %0, i64 140
  store i8 0, ptr %5, align 4
  %6 = getelementptr inbounds i8, ptr %0, i64 141
  store i8 0, ptr %6, align 1
  ret void
}